target datalayout = "e-m:e-p270:32:32-p271:32:32-p272:64:64-i64:64-i128:128-f80:128-n8:16:32:64-S128"
target triple = "x86_64-pc-linux-gnu"

%struct.rb_data_type_struct = type { ptr, %struct.anon, ptr, ptr, i64 }
%struct.anon = type { ptr, ptr, ptr, ptr, [1 x ptr] }

@sBAD_ALG = internal global i64 0, align 8
@sBAD_REQUEST = internal global i64 0, align 8
@sBAD_DATA_FORMAT = internal global i64 0, align 8
@sTIME_NOT_AVAILABLE = internal global i64 0, align 8
@sUNACCEPTED_POLICY = internal global i64 0, align 8
@sUNACCEPTED_EXTENSION = internal global i64 0, align 8
@sADD_INFO_NOT_AVAILABLE = internal global i64 0, align 8
@sSYSTEM_FAILURE = internal global i64 0, align 8
@eTimestampError = internal global i64 0, align 8
@ossl_ts_resp_type = internal constant %struct.rb_data_type_struct { ptr @.str.50, %struct.anon { ptr null, ptr @ossl_ts_resp_free, ptr null, ptr null, [1 x ptr] zeroinitializer }, ptr null, ptr null, i64 33 }, align 8
@rb_eRuntimeError = external global i64, align 8
@.str.49 = private unnamed_addr constant [28 x i8] c"TS_RESP wasn't initialized.\00", align 1
@.str.52 = private unnamed_addr constant [27 x i8] c"Unrecognized failure info.\00", align 1

; Function Attrs: nounwind sspstrong uwtable
define internal i64 @ossl_ts_resp_get_failure_info(i64 noundef %0) #0 {
  %2 = alloca i64, align 8
  %3 = alloca i64, align 8
  %4 = alloca ptr, align 8
  %5 = alloca ptr, align 8
  %6 = alloca ptr, align 8
  %7 = alloca i32, align 4
  store i64 %0, ptr %3, align 8, !tbaa !6
  call void @llvm.lifetime.start.p0(i64 8, ptr %4) #16
  call void @llvm.lifetime.start.p0(i64 8, ptr %5) #16
  call void @llvm.lifetime.start.p0(i64 8, ptr %6) #16
  br label %8

8:                                                ; preds = %1
  %9 = load i64, ptr %3, align 8, !tbaa !6
  %10 = call ptr @rb_check_typeddata(i64 noundef %9, ptr noundef @ossl_ts_resp_type)
  store ptr %10, ptr %4, align 8, !tbaa !13
  %11 = load ptr, ptr %4, align 8, !tbaa !13
  %12 = icmp ne ptr %11, null
  br i1 %12, label %15, label %13

13:                                               ; preds = %8
  %14 = load i64, ptr @rb_eRuntimeError, align 8, !tbaa !6
  call void (i64, ptr, ...) @ossl_raise(i64 noundef %14, ptr noundef @.str.49) #17
  unreachable

15:                                               ; preds = %8
  br label %16

16:                                               ; preds = %15
  br label %17

17:                                               ; preds = %16
  %18 = load ptr, ptr %4, align 8, !tbaa !13
  %19 = call ptr @TS_RESP_get_status_info(ptr noundef %18)
  store ptr %19, ptr %5, align 8, !tbaa !23
  %20 = load ptr, ptr %5, align 8, !tbaa !23
  %21 = call ptr @TS_STATUS_INFO_get0_failure_info(ptr noundef %20)
  store ptr %21, ptr %6, align 8, !tbaa !25
  %22 = load ptr, ptr %6, align 8, !tbaa !25
  %23 = icmp ne ptr %22, null
  br i1 %23, label %25, label %24

24:                                               ; preds = %17
  store i64 4, ptr %2, align 8
  store i32 1, ptr %7, align 4
  br label %75

25:                                               ; preds = %17
  %26 = load ptr, ptr %6, align 8, !tbaa !25
  %27 = call i32 @ASN1_BIT_STRING_get_bit(ptr noundef %26, i32 noundef 0)
  %28 = icmp ne i32 %27, 0
  br i1 %28, label %29, label %31

29:                                               ; preds = %25
  %30 = load i64, ptr @sBAD_ALG, align 8, !tbaa !6
  store i64 %30, ptr %2, align 8
  store i32 1, ptr %7, align 4
  br label %75

31:                                               ; preds = %25
  %32 = load ptr, ptr %6, align 8, !tbaa !25
  %33 = call i32 @ASN1_BIT_STRING_get_bit(ptr noundef %32, i32 noundef 2)
  %34 = icmp ne i32 %33, 0
  br i1 %34, label %35, label %37

35:                                               ; preds = %31
  %36 = load i64, ptr @sBAD_REQUEST, align 8, !tbaa !6
  store i64 %36, ptr %2, align 8
  store i32 1, ptr %7, align 4
  br label %75

37:                                               ; preds = %31
  %38 = load ptr, ptr %6, align 8, !tbaa !25
  %39 = call i32 @ASN1_BIT_STRING_get_bit(ptr noundef %38, i32 noundef 5)
  %40 = icmp ne i32 %39, 0
  br i1 %40, label %41, label %43

41:                                               ; preds = %37
  %42 = load i64, ptr @sBAD_DATA_FORMAT, align 8, !tbaa !6
  store i64 %42, ptr %2, align 8
  store i32 1, ptr %7, align 4
  br label %75

43:                                               ; preds = %37
  %44 = load ptr, ptr %6, align 8, !tbaa !25
  %45 = call i32 @ASN1_BIT_STRING_get_bit(ptr noundef %44, i32 noundef 14)
  %46 = icmp ne i32 %45, 0
  br i1 %46, label %47, label %49

47:                                               ; preds = %43
  %48 = load i64, ptr @sTIME_NOT_AVAILABLE, align 8, !tbaa !6
  store i64 %48, ptr %2, align 8
  store i32 1, ptr %7, align 4
  br label %75

49:                                               ; preds = %43
  %50 = load ptr, ptr %6, align 8, !tbaa !25
  %51 = call i32 @ASN1_BIT_STRING_get_bit(ptr noundef %50, i32 noundef 15)
  %52 = icmp ne i32 %51, 0
  br i1 %52, label %53, label %55

53:                                               ; preds = %49
  %54 = load i64, ptr @sUNACCEPTED_POLICY, align 8, !tbaa !6
  store i64 %54, ptr %2, align 8
  store i32 1, ptr %7, align 4
  br label %75

55:                                               ; preds = %49
  %56 = load ptr, ptr %6, align 8, !tbaa !25
  %57 = call i32 @ASN1_BIT_STRING_get_bit(ptr noundef %56, i32 noundef 16)
  %58 = icmp ne i32 %57, 0
  br i1 %58, label %59, label %61

59:                                               ; preds = %55
  %60 = load i64, ptr @sUNACCEPTED_EXTENSION, align 8, !tbaa !6
  store i64 %60, ptr %2, align 8
  store i32 1, ptr %7, align 4
  br label %75

61:                                               ; preds = %55
  %62 = load ptr, ptr %6, align 8, !tbaa !25
  %63 = call i32 @ASN1_BIT_STRING_get_bit(ptr noundef %62, i32 noundef 17)
  %64 = icmp ne i32 %63, 0
  br i1 %64, label %65, label %67

65:                                               ; preds = %61
  %66 = load i64, ptr @sADD_INFO_NOT_AVAILABLE, align 8, !tbaa !6
  store i64 %66, ptr %2, align 8
  store i32 1, ptr %7, align 4
  br label %75

67:                                               ; preds = %61
  %68 = load ptr, ptr %6, align 8, !tbaa !25
  %69 = call i32 @ASN1_BIT_STRING_get_bit(ptr noundef %68, i32 noundef 25)
  %70 = icmp ne i32 %69, 0
  br i1 %70, label %71, label %73

71:                                               ; preds = %67
  %72 = load i64, ptr @sSYSTEM_FAILURE, align 8, !tbaa !6
  store i64 %72, ptr %2, align 8
  store i32 1, ptr %7, align 4
  br label %75

73:                                               ; preds = %67
  %74 = load i64, ptr @eTimestampError, align 8, !tbaa !6
  call void (i64, ptr, ...) @ossl_raise(i64 noundef %74, ptr noundef @.str.52) #17
  unreachable

75:                                               ; preds = %71, %65, %59, %53, %47, %41, %35, %29, %24
  call void @llvm.lifetime.end.p0(i64 8, ptr %6) #16
  call void @llvm.lifetime.end.p0(i64 8, ptr %5) #16
  call void @llvm.lifetime.end.p0(i64 8, ptr %4) #16
  %76 = load i64, ptr %2, align 8
  ret i64 %76
}