; Function Attrs: nounwind sspstrong uwtable
define internal i64 @ossl_ts_resp_get_failure_info(i64 noundef %0) #0 {
  %2 = tail call ptr @rb_check_typeddata(i64 noundef %0, ptr noundef nonnull @ossl_ts_resp_type) #7
  %.not = icmp eq ptr %2, null
  br i1 %.not, label %3, label %5

3:                                                ; preds = %1
  %4 = load i64, ptr @rb_eRuntimeError, align 8, !tbaa !6
  tail call void (i64, ptr, ...) @ossl_raise(i64 noundef %4, ptr noundef nonnull @.str.49) #8
  unreachable

5:                                                ; preds = %1
  %6 = tail call ptr @TS_RESP_get_status_info(ptr noundef nonnull %2) #7
  %7 = tail call ptr @TS_STATUS_INFO_get0_failure_info(ptr noundef %6) #7
  %.not15 = icmp eq ptr %7, null
  br i1 %.not15, label %42, label %8

8:                                                ; preds = %5
  %9 = tail call i32 @ASN1_BIT_STRING_get_bit(ptr noundef nonnull %7, i32 noundef 0) #7
  %.not16 = icmp eq i32 %9, 0
  br i1 %.not16, label %12, label %10

10:                                               ; preds = %8
  %11 = load i64, ptr @sBAD_ALG, align 8, !tbaa !6
  br label %42

12:                                               ; preds = %8
  %13 = tail call i32 @ASN1_BIT_STRING_get_bit(ptr noundef nonnull %7, i32 noundef 2) #7
  %.not17 = icmp eq i32 %13, 0
  br i1 %.not17, label %16, label %14

14:                                               ; preds = %12
  %15 = load i64, ptr @sBAD_REQUEST, align 8, !tbaa !6
  br label %42

16:                                               ; preds = %12
  %17 = tail call i32 @ASN1_BIT_STRING_get_bit(ptr noundef nonnull %7, i32 noundef 5) #7
  %.not18 = icmp eq i32 %17, 0
  br i1 %.not18, label %20, label %18

18:                                               ; preds = %16
  %19 = load i64, ptr @sBAD_DATA_FORMAT, align 8, !tbaa !6
  br label %42

20:                                               ; preds = %16
  %21 = tail call i32 @ASN1_BIT_STRING_get_bit(ptr noundef nonnull %7, i32 noundef 14) #7
  %.not19 = icmp eq i32 %21, 0
  br i1 %.not19, label %24, label %22

22:                                               ; preds = %20
  %23 = load i64, ptr @sTIME_NOT_AVAILABLE, align 8, !tbaa !6
  br label %42

24:                                               ; preds = %20
  %25 = tail call i32 @ASN1_BIT_STRING_get_bit(ptr noundef nonnull %7, i32 noundef 15) #7
  %.not20 = icmp eq i32 %25, 0
  br i1 %.not20, label %28, label %26

26:                                               ; preds = %24
  %27 = load i64, ptr @sUNACCEPTED_POLICY, align 8, !tbaa !6
  br label %42

28:                                               ; preds = %24
  %29 = tail call i32 @ASN1_BIT_STRING_get_bit(ptr noundef nonnull %7, i32 noundef 16) #7
  %.not21 = icmp eq i32 %29, 0
  br i1 %.not21, label %32, label %30

30:                                               ; preds = %28
  %31 = load i64, ptr @sUNACCEPTED_EXTENSION, align 8, !tbaa !6
  br label %42

32:                                               ; preds = %28
  %33 = tail call i32 @ASN1_BIT_STRING_get_bit(ptr noundef nonnull %7, i32 noundef 17) #7
  %.not22 = icmp eq i32 %33, 0
  br i1 %.not22, label %36, label %34

34:                                               ; preds = %32
  %35 = load i64, ptr @sADD_INFO_NOT_AVAILABLE, align 8, !tbaa !6
  br label %42

36:                                               ; preds = %32
  %37 = tail call i32 @ASN1_BIT_STRING_get_bit(ptr noundef nonnull %7, i32 noundef 25) #7
  %.not23 = icmp eq i32 %37, 0
  br i1 %.not23, label %40, label %38

38:                                               ; preds = %36
  %39 = load i64, ptr @sSYSTEM_FAILURE, align 8, !tbaa !6
  br label %42

40:                                               ; preds = %36
  %41 = load i64, ptr @eTimestampError, align 8, !tbaa !6
  tail call void (i64, ptr, ...) @ossl_raise(i64 noundef %41, ptr noundef nonnull @.str.52) #8
  unreachable

42:                                               ; preds = %5, %38, %34, %30, %26, %22, %18, %14, %10
  %.0 = phi i64 [ %11, %10 ], [ %15, %14 ], [ %19, %18 ], [ %23, %22 ], [ %27, %26 ], [ %31, %30 ], [ %35, %34 ], [ %39, %38 ], [ 4, %5 ]
  ret i64 %.0
}